Certificate:
    Data:
        Version: 3 (0x2)
        Serial Number: 4096 (0x1000)
        Signature Algorithm: sha256WithRSAEncryption
        Issuer: C=PT, ST=Porto, L=Porto, O=FEUP, OU=FEUP, CN=InesFabio/emailAddress=up202007210@fe.up.pt
        Validity
            Not Before: Apr 29 15:36:55 2024 GMT
            Not After : Apr 27 15:36:55 2034 GMT
        Subject: C=US, O=GasparSa Inc., CN=www.GasparSa2024.com
        Subject Public Key Info:
            Public Key Algorithm: rsaEncryption
                RSA Public-Key: (2048 bit)
                Modulus:
                    00:d4:aa:62:30:db:30:2f:ce:71:21:f5:d1:80:1e:
                    79:6a:ca:f2:f3:bd:b7:e1:fb:0c:4e:6d:df:98:0b:
                    11:3c:c5:24:a4:61:95:25:16:80:72:1d:c7:14:43:
                    15:b8:c1:ff:bb:2b:a3:fd:7c:56:f7:00:55:bb:04:
                    2e:3f:5e:6c:66:0e:59:d3:0e:da:f6:2c:07:14:6e:
                    72:3e:3d:01:70:85:8b:58:ec:41:ee:86:0c:15:2b:
                    45:ba:aa:19:9e:e7:cb:c3:bc:2e:6a:e0:a9:3f:37:
                    3b:fa:14:7a:b4:3a:dd:e9:de:c3:1f:d7:97:5b:16:
                    d4:c8:8b:fd:53:2e:93:b8:f2:6c:fd:e1:57:b3:cc:
                    65:c3:41:f3:26:81:9d:73:00:cf:6e:01:fa:49:1e:
                    9c:cd:b6:56:81:6c:fe:f5:5c:ab:69:d9:ff:2a:d0:
                    5d:d2:ac:7b:45:98:70:d3:fb:25:cd:ed:0a:8d:b9:
                    26:12:b1:a7:ee:c2:60:41:e1:a4:aa:25:0c:54:21:
                    97:51:44:41:f1:77:2b:18:a9:a3:bb:30:a2:ba:ca:
                    23:84:d8:70:dd:c0:47:ab:22:8e:d2:43:ea:29:a0:
                    50:3f:7e:df:3e:0c:98:ee:e6:c1:86:83:7b:dd:df:
                    e6:6c:2e:9c:b3:7a:92:f6:8e:f0:df:85:74:8d:2a:
                    d4:2f
                Exponent: 65537 (0x10001)
        X509v3 extensions:
            X509v3 Basic Constraints: 
                CA:FALSE
            Netscape Comment: 
                OpenSSL Generated Certificate
            X509v3 Subject Key Identifier: 
                87:75:F9:FD:74:5A:F5:BB:50:07:07:7F:F2:CE:C0:BA:4B:59:92:E3
            X509v3 Authority Key Identifier: 
                keyid:30:A3:CD:0F:82:E3:AC:1B:BD:B6:7C:AC:BF:E9:A8:DB:29:C6:52:9C

    Signature Algorithm: sha256WithRSAEncryption
         b2:d6:5a:75:e9:9a:c7:92:c5:1d:35:00:a4:ef:b3:a4:d2:e0:
         2c:35:ed:36:02:8c:63:b0:59:19:57:82:5d:1a:0a:e2:bb:41:
         58:00:61:4f:5a:04:82:9f:85:9a:46:64:72:d5:1a:1d:2a:fd:
         36:3f:6c:32:5e:21:ee:a6:fe:b1:f1:54:22:e7:fc:03:46:d9:
         bb:59:32:dd:01:95:f6:22:db:10:5b:66:78:41:f4:f6:ad:76:
         e6:63:88:77:ed:30:07:73:63:b0:d1:68:47:53:2c:79:83:fd:
         ad:e7:f2:49:d1:2f:fb:b7:4f:3f:6a:c0:31:30:e8:c9:d7:67:
         05:0d:f0:5f:85:d3:44:15:55:68:51:29:bc:f2:38:82:af:0a:
         1d:c1:f7:4b:37:db:c0:83:89:cf:72:7b:d9:46:df:35:59:37:
         90:f7:ba:13:c2:43:bb:1a:d6:0f:bd:c2:ee:e8:66:6b:14:b0:
         94:40:37:71:d4:bb:77:19:2b:56:67:2e:0c:b9:67:16:bc:ff:
         b2:95:14:72:fc:11:c2:63:a3:9d:f1:be:71:b7:fb:e5:90:3f:
         ad:c1:08:b8:6f:c2:1e:4f:ce:dc:2f:b6:3f:c9:b3:fc:4f:24:
         fc:14:9d:e9:79:01:a6:4f:5d:d2:ab:72:1b:1f:c5:97:cb:a5:
         5b:38:6d:ca:d1:6e:10:c5:eb:62:b5:1e:95:e0:7a:b5:78:48:
         9a:17:b1:56:9d:a8:b2:42:e2:c0:ef:74:e2:c0:d9:78:79:4e:
         cd:18:1e:52:3c:d1:ab:db:a5:e7:ba:79:34:37:4d:03:ae:21:
         e2:d8:86:f9:19:b3:97:c4:5e:76:50:bd:c4:d3:64:2e:b7:54:
         9d:36:47:7a:4b:ee:12:81:80:9c:09:42:cf:04:48:3f:2f:56:
         bd:d5:f7:82:0a:2d:39:c3:95:ab:18:ef:3c:51:af:6f:6f:de:
         d5:f0:26:dc:7f:89:94:4f:de:5b:65:a9:f1:02:50:e9:70:9b:
         4f:13:e4:5d:a7:69:43:19:69:eb:8b:c6:fd:b5:d8:15:a6:df:
         dd:e1:5b:c6:c9:f6:f6:ff:17:de:bd:62:26:79:23:68:1c:d8:
         c7:df:3a:0e:2f:ec:45:60:55:8b:78:0b:9a:b5:1a:d7:d3:44:
         c2:b3:25:31:12:d2:59:1d:c4:d3:f3:46:2e:e2:d2:1b:21:13:
         72:bd:61:6a:5c:a4:58:5e:f8:4a:34:08:8b:c6:d4:61:f5:20:
         be:e4:b6:7e:c8:64:37:df:b0:66:10:99:be:5a:53:b6:e9:03:
         c1:ec:2d:62:23:97:bd:ea:28:74:41:b1:ba:94:32:a8:37:ea:
         12:4f:d8:f9:c2:b6:bd:a0
-----BEGIN CERTIFICATE-----
MIIEwDCCAqigAwIBAgICEAAwDQYJKoZIhvcNAQELBQAwgYQxCzAJBgNVBAYTAlBU
MQ4wDAYDVQQIDAVQb3J0bzEOMAwGA1UEBwwFUG9ydG8xDTALBgNVBAoMBEZFVVAx
DTALBgNVBAsMBEZFVVAxEjAQBgNVBAMMCUluZXNGYWJpbzEjMCEGCSqGSIb3DQEJ
ARYUdXAyMDIwMDcyMTBAZmUudXAucHQwHhcNMjQwNDI5MTUzNjU1WhcNMzQwNDI3
MTUzNjU1WjBEMQswCQYDVQQGEwJVUzEWMBQGA1UECgwNR2FzcGFyU2EgSW5jLjEd
MBsGA1UEAwwUd3d3Lkdhc3BhclNhMjAyNC5jb20wggEiMA0GCSqGSIb3DQEBAQUA
A4IBDwAwggEKAoIBAQDUqmIw2zAvznEh9dGAHnlqyvLzvbfh+wxObd+YCxE8xSSk
YZUlFoByHccUQxW4wf+7K6P9fFb3AFW7BC4/XmxmDlnTDtr2LAcUbnI+PQFwhYtY
7EHuhgwVK0W6qhme58vDvC5q4Kk/Nzv6FHq0Ot3p3sMf15dbFtTIi/1TLpO48mz9
4VezzGXDQfMmgZ1zAM9uAfpJHpzNtlaBbP71XKtp2f8q0F3SrHtFmHDT+yXN7QqN
uSYSsafuwmBB4aSqJQxUIZdRREHxdysYqaO7MKK6yiOE2HDdwEerIo7SQ+opoFA/
ft8+DJju5sGGg3vd3+ZsLpyzepL2jvDfhXSNKtQvAgMBAAGjezB5MAkGA1UdEwQC
MAAwLAYJYIZIAYb4QgENBB8WHU9wZW5TU0wgR2VuZXJhdGVkIENlcnRpZmljYXRl
MB0GA1UdDgQWBBSHdfn9dFr1u1AHB3/yzsC6S1mS4zAfBgNVHSMEGDAWgBQwo80P
guOsG722fKy/6ajbKcZSnDANBgkqhkiG9w0BAQsFAAOCAgEAstZademax5LFHTUA
pO+zpNLgLDXtNgKMY7BZGVeCXRoK4rtBWABhT1oEgp+FmkZkctUaHSr9Nj9sMl4h
7qb+sfFUIuf8A0bZu1ky3QGV9iLbEFtmeEH09q125mOId+0wB3NjsNFoR1MseYP9
refySdEv+7dPP2rAMTDoyddnBQ3wX4XTRBVVaFEpvPI4gq8KHcH3SzfbwIOJz3J7
2UbfNVk3kPe6E8JDuxrWD73C7uhmaxSwlEA3cdS7dxkrVmcuDLlnFrz/spUUcvwR
wmOjnfG+cbf75ZA/rcEIuG/CHk/O3C+2P8mz/E8k/BSd6XkBpk9d0qtyGx/Fl8ul
WzhtytFuEMXrYrUeleB6tXhImhexVp2oskLiwO904sDZeHlOzRgeUjzRq9ul57p5
NDdNA64h4tiG+Rmzl8RedlC9xNNkLrdUnTZHekvuEoGAnAlCzwRIPy9WvdX3ggot
OcOVqxjvPFGvb2/e1fAm3H+JlE/eW2Wp8QJQ6XCbTxPkXadpQxlp64vG/bXYFabf
3eFbxsn29v8X3r1iJnkjaBzYx986Di/sRWBVi3gLmrUa19NEwrMlMRLSWR3E0/NG
LuLSGyETcr1halykWF74SjQIi8bUYfUgvuS2fshkN9+wZhCZvlpTtukDwewtYiOX
veoodEGxupQyqDfqEk/Y+cK2vaA=
-----END CERTIFICATE-----
